; Function Attrs: null_pointer_is_valid sspstrong uwtable
define internal i32 @dissect_scsi_open_request(ptr noundef %0, i32 noundef %1, ptr noundef readonly captures(none) %2, ptr noundef %3, i32 %4) #0 {
  %6 = load i32, ptr @hf_ndmp_scsi_device, align 4
  %7 = tail call i32 @dissect_rpc_string(ptr noundef %0, ptr noundef %3, i32 noundef %6, i32 noundef %1, ptr noundef null)
  %8 = getelementptr inbounds nuw i8, ptr %2, i64 80
  %9 = load ptr, ptr %8, align 8
  %10 = getelementptr inbounds nuw i8, ptr %9, i64 57
  %11 = load i16, ptr %10, align 1
  %12 = and i16 %11, 8
  %.not = icmp eq i16 %12, 0
  br i1 %.not, label %13, label %24

13:                                               ; preds = %5
  %14 = tail call ptr @wmem_file_scope()
  %15 = tail call noalias dereferenceable_or_null(16) ptr @wmem_alloc(ptr noundef %14, i64 noundef 16) #8
  store i8 -1, ptr %15, align 8
  %16 = load ptr, ptr @ndmp_conv_data, align 8
  %17 = getelementptr inbounds nuw i8, ptr %16, i64 48
  %18 = load ptr, ptr %17, align 8
  %19 = getelementptr inbounds nuw i8, ptr %15, i64 8
  store ptr %18, ptr %19, align 8
  %20 = getelementptr inbounds nuw i8, ptr %16, i64 16
  %21 = load ptr, ptr %20, align 8
  %22 = getelementptr inbounds nuw i8, ptr %2, i64 20
  %23 = load i32, ptr %22, align 4
  tail call void @wmem_tree_insert32(ptr noundef %21, i32 noundef %23, ptr noundef %15)
  br label %24

24:                                               ; preds = %13, %5
  ret i32 %7
}